ccopy_reg
_reconstructor
p0
(cSA
SA
p1
c__builtin__
object
p2
Ntp3
Rp4
(dp5
S'start'
p6
g0
(cSA
Node
p7
g2
Ntp8
Rp9
(dp10
S'id'
p11
I1
sbsS'nodes'
p12
(lp13
I1
aI3
ag0
(g7
g2
Ntp14
Rp15
(dp16
g11
I4
sbag0
(g7
g2
Ntp17
Rp18
(dp19
g11
I5
sbag0
(g7
g2
Ntp20
Rp21
(dp22
g11
I6
sbag0
(g7
g2
Ntp23
Rp24
(dp25
g11
I7
sbag0
(g7
g2
Ntp26
Rp27
(dp28
g11
I8
sbaI2
asS'edges'
p29
(lp30
g0
(cSA
Edge
p31
g2
Ntp32
Rp33
(dp34
S'action'
p35
S'FWD(a)'
p36
sg6
g0
(g7
g2
Ntp37
Rp38
(dp39
g11
I1
sbsS'guard'
p40
S' (ip.src = 192.168.1.1 and ip.dst = 192.168.1.2 and tcp.dst = 80) '
p41
sS'end'
p42
g15
sS'update'
p43
S''
p44
sbag0
(g31
g2
Ntp45
Rp46
(dp47
g35
S'FWD(.) && dpi'
p48
sg6
g15
sg40
g44
sg42
g0
(g7
g2
Ntp49
Rp50
(dp51
g11
I3
sbsg43
g44
sbag0
(g31
g2
Ntp52
Rp53
(dp54
g35
S'FWD(b)'
p55
sg6
g0
(g7
g2
Ntp56
Rp57
(dp58
g11
I1
sbsg40
g41
sg42
g18
sg43
g44
sbag0
(g31
g2
Ntp59
Rp60
(dp61
g35
S'FWD(.) && dpi'
p62
sg6
g18
sg40
g44
sg42
g0
(g7
g2
Ntp63
Rp64
(dp65
g11
I3
sbsg43
g44
sbag0
(g31
g2
Ntp66
Rp67
(dp68
g35
S'FWD(.)'
p69
sg6
g0
(g7
g2
Ntp70
Rp71
(dp72
g11
I1
sbsg40
g44
sg42
g71
sg43
g44
sbag0
(g31
g2
Ntp73
Rp74
(dp75
g35
g69
sg6
g0
(g7
g2
Ntp76
Rp77
(dp78
g11
I2
sbsg40
g44
sg42
g77
sg43
g44
sbag0
(g31
g2
Ntp79
Rp80
(dp81
g35
S'FWD(c)'
p82
sg6
g0
(g7
g2
Ntp83
Rp84
(dp85
g11
I3
sbsg40
g44
sg42
g21
sg43
g44
sbag0
(g31
g2
Ntp86
Rp87
(dp88
g35
S'FWD(.) && nat'
p89
sg6
g21
sg40
g44
sg42
g0
(g7
g2
Ntp90
Rp91
(dp92
g11
I2
sbsg43
g44
sbag0
(g31
g2
Ntp93
Rp94
(dp95
g35
S'FWD(d)'
p96
sg6
g0
(g7
g2
Ntp97
Rp98
(dp99
g11
I3
sbsg40
g44
sg42
g24
sg43
g44
sbag0
(g31
g2
Ntp100
Rp101
(dp102
g35
S'FWD(.) && nat'
p103
sg6
g24
sg40
g44
sg42
g0
(g7
g2
Ntp104
Rp105
(dp106
g11
I2
sbsg43
g44
sbag0
(g31
g2
Ntp107
Rp108
(dp109
g35
g69
sg6
g0
(g7
g2
Ntp110
Rp111
(dp112
g11
I3
sbsg40
g44
sg42
g111
sg43
g44
sbag0
(g31
g2
Ntp113
Rp114
(dp115
g35
S'FWD(e)'
p116
sg6
g0
(g7
g2
Ntp117
Rp118
(dp119
g11
I2
sbsg40
g44
sg42
g27
sg43
g44
sbasg42
g118
sb.