ccopy_reg
_reconstructor
p0
(cSA
SA
p1
c__builtin__
object
p2
Ntp3
Rp4
(dp5
S'start'
p6
g0
(cSA
Node
p7
g2
Ntp8
Rp9
(dp10
S'id'
p11
I1
sbsS'nodes'
p12
(lp13
g0
(g7
g2
Ntp14
Rp15
(dp16
g11
I1
sbag0
(g7
g2
Ntp17
Rp18
(dp19
g11
I3
sbag0
(g7
g2
Ntp20
Rp21
(dp22
g11
I4
sbag0
(g7
g2
Ntp23
Rp24
(dp25
g11
I5
sbag0
(g7
g2
Ntp26
Rp27
(dp28
g11
I6
sbag0
(g7
g2
Ntp29
Rp30
(dp31
g11
I7
sbag0
(g7
g2
Ntp32
Rp33
(dp34
g11
I8
sbag0
(g7
g2
Ntp35
Rp36
(dp37
g11
I2
sbasS'edges'
p38
(lp39
g0
(cSA
Edge
p40
g2
Ntp41
Rp42
(dp43
S'action'
p44
S'FWD(a)'
p45
sg6
g0
(g7
g2
Ntp46
Rp47
(dp48
g11
I1
sbsS'guard'
p49
S' (ip.src = 192.168.1.1 and ip.dst = 192.168.1.2 and tcp.dst = 80) '
p50
sS'end'
p51
g21
sS'update'
p52
S''
p53
sbag0
(g40
g2
Ntp54
Rp55
(dp56
g44
S'FWD(.) && dpi'
p57
sg6
g21
sg49
g53
sg51
g0
(g7
g2
Ntp58
Rp59
(dp60
g11
I3
sbsg52
g53
sbag0
(g40
g2
Ntp61
Rp62
(dp63
g44
S'FWD(b)'
p64
sg6
g0
(g7
g2
Ntp65
Rp66
(dp67
g11
I1
sbsg49
g50
sg51
g24
sg52
g53
sbag0
(g40
g2
Ntp68
Rp69
(dp70
g44
S'FWD(.) && dpi'
p71
sg6
g24
sg49
g53
sg51
g0
(g7
g2
Ntp72
Rp73
(dp74
g11
I3
sbsg52
g53
sbag0
(g40
g2
Ntp75
Rp76
(dp77
g44
S'FWD(.)'
p78
sg6
g0
(g7
g2
Ntp79
Rp80
(dp81
g11
I1
sbsg49
g53
sg51
g80
sg52
g53
sbag0
(g40
g2
Ntp82
Rp83
(dp84
g44
g78
sg6
g0
(g7
g2
Ntp85
Rp86
(dp87
g11
I2
sbsg49
g53
sg51
g86
sg52
g53
sbag0
(g40
g2
Ntp88
Rp89
(dp90
g44
S'FWD(c)'
p91
sg6
g0
(g7
g2
Ntp92
Rp93
(dp94
g11
I3
sbsg49
g53
sg51
g27
sg52
g53
sbag0
(g40
g2
Ntp95
Rp96
(dp97
g44
S'FWD(.) && nat'
p98
sg6
g27
sg49
g53
sg51
g0
(g7
g2
Ntp99
Rp100
(dp101
g11
I2
sbsg52
g53
sbag0
(g40
g2
Ntp102
Rp103
(dp104
g44
S'FWD(d)'
p105
sg6
g0
(g7
g2
Ntp106
Rp107
(dp108
g11
I3
sbsg49
g53
sg51
g30
sg52
g53
sbag0
(g40
g2
Ntp109
Rp110
(dp111
g44
S'FWD(.) && nat'
p112
sg6
g30
sg49
g53
sg51
g0
(g7
g2
Ntp113
Rp114
(dp115
g11
I2
sbsg52
g53
sbag0
(g40
g2
Ntp116
Rp117
(dp118
g44
g78
sg6
g0
(g7
g2
Ntp119
Rp120
(dp121
g11
I3
sbsg49
g53
sg51
g120
sg52
g53
sbag0
(g40
g2
Ntp122
Rp123
(dp124
g44
S'FWD(e)'
p125
sg6
g0
(g7
g2
Ntp126
Rp127
(dp128
g11
I2
sbsg49
g53
sg51
g33
sg52
g53
sbasg51
g127
sb.